target datalayout = "e-m:e-p270:32:32-p271:32:32-p272:64:64-i64:64-i128:128-f80:128-n8:16:32:64-S128"
target triple = "x86_64-pc-linux-gnu"

%struct.BufFile = type { i32, ptr, i8, i8, i8, ptr, ptr, ptr, i32, i64, i32, i32, %union.PGAlignedBlock }
%union.PGAlignedBlock = type { double, [8184 x i8] }

@InterruptPending = external global i32, align 4
@.str = private unnamed_addr constant [57 x i8] c"could not open temporary file \22%s\22 from BufFile \22%s\22: %m\00", align 1
@.str.1 = private unnamed_addr constant [10 x i8] c"buffile.c\00", align 1
@__func__.BufFileOpenFileSet = private unnamed_addr constant [19 x i8] c"BufFileOpenFileSet\00", align 1
@CurrentResourceOwner = external global ptr, align 8
@.str.8 = private unnamed_addr constant [6 x i8] c"%s.%d\00", align 1

; Function Attrs: nounwind uwtable
define internal ptr @makeBufFileCommon(i32 noundef %0) #0 {
  %2 = alloca i32, align 4
  %3 = alloca ptr, align 8
  store i32 %0, ptr %2, align 4
  call void @llvm.lifetime.start.p0(i64 8, ptr %3) #8
  %4 = call ptr @palloc(i64 noundef 8264)
  store ptr %4, ptr %3, align 8
  %5 = load i32, ptr %2, align 4
  %6 = load ptr, ptr %3, align 8
  %7 = getelementptr inbounds nuw %struct.BufFile, ptr %6, i32 0, i32 0
  store i32 %5, ptr %7, align 8
  %8 = load ptr, ptr %3, align 8
  %9 = getelementptr inbounds nuw %struct.BufFile, ptr %8, i32 0, i32 2
  store i8 0, ptr %9, align 8
  %10 = load ptr, ptr %3, align 8
  %11 = getelementptr inbounds nuw %struct.BufFile, ptr %10, i32 0, i32 3
  store i8 0, ptr %11, align 1
  %12 = load ptr, ptr @CurrentResourceOwner, align 8
  %13 = load ptr, ptr %3, align 8
  %14 = getelementptr inbounds nuw %struct.BufFile, ptr %13, i32 0, i32 7
  store ptr %12, ptr %14, align 8
  %15 = load ptr, ptr %3, align 8
  %16 = getelementptr inbounds nuw %struct.BufFile, ptr %15, i32 0, i32 8
  store i32 0, ptr %16, align 8
  %17 = load ptr, ptr %3, align 8
  %18 = getelementptr inbounds nuw %struct.BufFile, ptr %17, i32 0, i32 9
  store i64 0, ptr %18, align 8
  %19 = load ptr, ptr %3, align 8
  %20 = getelementptr inbounds nuw %struct.BufFile, ptr %19, i32 0, i32 10
  store i32 0, ptr %20, align 8
  %21 = load ptr, ptr %3, align 8
  %22 = getelementptr inbounds nuw %struct.BufFile, ptr %21, i32 0, i32 11
  store i32 0, ptr %22, align 4
  %23 = load ptr, ptr %3, align 8
  call void @llvm.lifetime.end.p0(i64 8, ptr %3) #8
  ret ptr %23
}

; Function Attrs: nounwind uwtable
define internal void @FileSetSegmentName(ptr noundef %0, ptr noundef %1, i32 noundef %2) #0 {
  %4 = alloca ptr, align 8
  %5 = alloca ptr, align 8
  %6 = alloca i32, align 4
  store ptr %0, ptr %4, align 8
  store ptr %1, ptr %5, align 8
  store i32 %2, ptr %6, align 4
  %7 = load ptr, ptr %4, align 8
  %8 = load ptr, ptr %5, align 8
  %9 = load i32, ptr %6, align 4
  %10 = call i32 (ptr, i64, ptr, ...) @pg_snprintf(ptr noundef %7, i64 noundef 1024, ptr noundef @.str.8, ptr noundef %8, i32 noundef %9)
  ret void
}

; Function Attrs: nounwind uwtable
define dso_local ptr @BufFileOpenFileSet(ptr noundef %0, ptr noundef %1, i32 noundef %2, i1 noundef zeroext %3) #0 {
  %5 = alloca ptr, align 8
  %6 = alloca ptr, align 8
  %7 = alloca ptr, align 8
  %8 = alloca i32, align 4
  %9 = alloca i8, align 1
  %10 = alloca ptr, align 8
  %11 = alloca [1024 x i8], align 16
  %12 = alloca i64, align 8
  %13 = alloca ptr, align 8
  %14 = alloca i32, align 4
  %15 = alloca i32, align 4
  store ptr %0, ptr %6, align 8
  store ptr %1, ptr %7, align 8
  store i32 %2, ptr %8, align 4
  %16 = zext i1 %3 to i8
  store i8 %16, ptr %9, align 1
  call void @llvm.lifetime.start.p0(i64 8, ptr %10) #8
  call void @llvm.lifetime.start.p0(i64 1024, ptr %11) #8
  call void @llvm.lifetime.start.p0(i64 8, ptr %12) #8
  store i64 16, ptr %12, align 8
  call void @llvm.lifetime.start.p0(i64 8, ptr %13) #8
  call void @llvm.lifetime.start.p0(i64 4, ptr %14) #8
  store i32 0, ptr %14, align 4
  %17 = load i64, ptr %12, align 8
  %18 = mul i64 4, %17
  %19 = call ptr @palloc(i64 noundef %18)
  store ptr %19, ptr %13, align 8
  br label %20

20:                                               ; preds = %65, %4
  %21 = load i32, ptr %14, align 4
  %22 = add i32 %21, 1
  %23 = sext i32 %22 to i64
  %24 = load i64, ptr %12, align 8
  %25 = icmp ugt i64 %23, %24
  br i1 %25, label %26, label %33

26:                                               ; preds = %20
  %27 = load i64, ptr %12, align 8
  %28 = mul i64 %27, 2
  store i64 %28, ptr %12, align 8
  %29 = load ptr, ptr %13, align 8
  %30 = load i64, ptr %12, align 8
  %31 = mul i64 4, %30
  %32 = call ptr @repalloc(ptr noundef %29, i64 noundef %31)
  store ptr %32, ptr %13, align 8
  br label %33

33:                                               ; preds = %26, %20
  %34 = getelementptr inbounds [1024 x i8], ptr %11, i64 0, i64 0
  %35 = load ptr, ptr %7, align 8
  %36 = load i32, ptr %14, align 4
  call void @FileSetSegmentName(ptr noundef %34, ptr noundef %35, i32 noundef %36)
  %37 = load ptr, ptr %6, align 8
  %38 = getelementptr inbounds [1024 x i8], ptr %11, i64 0, i64 0
  %39 = load i32, ptr %8, align 4
  %40 = call i32 @FileSetOpen(ptr noundef %37, ptr noundef %38, i32 noundef %39)
  %41 = load ptr, ptr %13, align 8
  %42 = load i32, ptr %14, align 4
  %43 = sext i32 %42 to i64
  %44 = getelementptr inbounds i32, ptr %41, i64 %43
  store i32 %40, ptr %44, align 4
  %45 = load ptr, ptr %13, align 8
  %46 = load i32, ptr %14, align 4
  %47 = sext i32 %46 to i64
  %48 = getelementptr inbounds i32, ptr %45, i64 %47
  %49 = load i32, ptr %48, align 4
  %50 = icmp sle i32 %49, 0
  br i1 %50, label %51, label %52

51:                                               ; preds = %33
  br label %66

52:                                               ; preds = %33
  %53 = load i32, ptr %14, align 4
  %54 = add i32 %53, 1
  store i32 %54, ptr %14, align 4
  br label %55

55:                                               ; preds = %52
  %56 = load volatile i32, ptr @InterruptPending, align 4
  %57 = icmp ne i32 %56, 0
  %58 = zext i1 %57 to i32
  %59 = sext i32 %58 to i64
  %60 = call i64 @llvm.expect.i64(i64 %59, i64 0)
  %61 = icmp ne i64 %60, 0
  br i1 %61, label %62, label %63

62:                                               ; preds = %55
  call void @ProcessInterrupts()
  br label %63

63:                                               ; preds = %62, %55
  br label %64

64:                                               ; preds = %63
  br label %65

65:                                               ; preds = %64
  br label %20

66:                                               ; preds = %51
  %67 = load i32, ptr %14, align 4
  %68 = icmp eq i32 %67, 0
  br i1 %68, label %69, label %88

69:                                               ; preds = %66
  %70 = load ptr, ptr %13, align 8
  call void @pfree(ptr noundef %70)
  %71 = load i8, ptr %9, align 1, !range !4, !noundef !5
  %72 = trunc i8 %71 to i1
  br i1 %72, label %73, label %74

73:                                               ; preds = %69
  store ptr null, ptr %5, align 8
  store i32 1, ptr %15, align 4
  br label %107

74:                                               ; preds = %69
  br label %75

75:                                               ; preds = %74
  br i1 true, label %76, label %78

76:                                               ; preds = %75
  %77 = call zeroext i1 @errstart_cold(i32 noundef 21, ptr noundef null) #9
  br i1 %77, label %80, label %85

78:                                               ; preds = %75
  %79 = call zeroext i1 @errstart(i32 noundef 21, ptr noundef null)
  br i1 %79, label %80, label %85

80:                                               ; preds = %78, %76
  %81 = call i32 @errcode_for_file_access()
  %82 = getelementptr inbounds [1024 x i8], ptr %11, i64 0, i64 0
  %83 = load ptr, ptr %7, align 8
  %84 = call i32 (ptr, ...) @errmsg(ptr noundef @.str, ptr noundef %82, ptr noundef %83)
  call void @errfinish(ptr noundef @.str.1, i32 noundef 339, ptr noundef @__func__.BufFileOpenFileSet)
  br label %85

85:                                               ; preds = %80, %78, %76
  unreachable

86:                                               ; No predecessors!
  br label %87

87:                                               ; preds = %86
  br label %88

88:                                               ; preds = %87, %66
  %89 = load i32, ptr %14, align 4
  %90 = call ptr @makeBufFileCommon(i32 noundef %89)
  store ptr %90, ptr %10, align 8
  %91 = load ptr, ptr %13, align 8
  %92 = load ptr, ptr %10, align 8
  %93 = getelementptr inbounds nuw %struct.BufFile, ptr %92, i32 0, i32 1
  store ptr %91, ptr %93, align 8
  %94 = load i32, ptr %8, align 4
  %95 = icmp eq i32 %94, 0
  %96 = load ptr, ptr %10, align 8
  %97 = getelementptr inbounds nuw %struct.BufFile, ptr %96, i32 0, i32 4
  %98 = zext i1 %95 to i8
  store i8 %98, ptr %97, align 2
  %99 = load ptr, ptr %6, align 8
  %100 = load ptr, ptr %10, align 8
  %101 = getelementptr inbounds nuw %struct.BufFile, ptr %100, i32 0, i32 5
  store ptr %99, ptr %101, align 8
  %102 = load ptr, ptr %7, align 8
  %103 = call ptr @pstrdup(ptr noundef %102)
  %104 = load ptr, ptr %10, align 8
  %105 = getelementptr inbounds nuw %struct.BufFile, ptr %104, i32 0, i32 6
  store ptr %103, ptr %105, align 8
  %106 = load ptr, ptr %10, align 8
  store ptr %106, ptr %5, align 8
  store i32 1, ptr %15, align 4
  br label %107

107:                                              ; preds = %88, %73
  call void @llvm.lifetime.end.p0(i64 4, ptr %14) #8
  call void @llvm.lifetime.end.p0(i64 8, ptr %13) #8
  call void @llvm.lifetime.end.p0(i64 8, ptr %12) #8
  call void @llvm.lifetime.end.p0(i64 1024, ptr %11) #8
  call void @llvm.lifetime.end.p0(i64 8, ptr %10) #8
  %108 = load ptr, ptr %5, align 8
  ret ptr %108
}