; Function Attrs: nounwind uwtable
define dso_local noundef ptr @BufFileOpenFileSet(ptr noundef %0, ptr noundef %1, i32 noundef %2, i1 noundef zeroext %3) local_unnamed_addr #0 {
  %5 = alloca [1024 x i8], align 16
  call void @llvm.lifetime.start.p0(i64 1024, ptr nonnull %5) #10
  %6 = tail call ptr @palloc(i64 noundef 64) #10
  br label %7

7:                                                ; preds = %.backedge, %4
  %.030 = phi i64 [ 16, %4 ], [ %.131, %.backedge ]
  %.029 = phi ptr [ %6, %4 ], [ %.1, %.backedge ]
  %.0 = phi i32 [ 0, %4 ], [ %8, %.backedge ]
  %8 = add i32 %.0, 1
  %9 = sext i32 %8 to i64
  %10 = icmp ult i64 %.030, %9
  br i1 %10, label %11, label %15

11:                                               ; preds = %7
  %12 = shl i64 %.030, 1
  %13 = shl i64 %.030, 3
  %14 = call ptr @repalloc(ptr noundef %.029, i64 noundef %13) #10
  br label %15

15:                                               ; preds = %11, %7
  %.131 = phi i64 [ %12, %11 ], [ %.030, %7 ]
  %.1 = phi ptr [ %14, %11 ], [ %.029, %7 ]
  %16 = call i32 (ptr, i64, ptr, ...) @pg_snprintf(ptr noundef nonnull %5, i64 noundef 1024, ptr noundef nonnull @.str.8, ptr noundef %1, i32 noundef %.0) #10
  %17 = call i32 @FileSetOpen(ptr noundef %0, ptr noundef nonnull %5, i32 noundef %2) #10
  %18 = sext i32 %.0 to i64
  %19 = getelementptr inbounds i32, ptr %.1, i64 %18
  store i32 %17, ptr %19, align 4
  %20 = icmp slt i32 %17, 1
  br i1 %20, label %24, label %21

21:                                               ; preds = %15
  %22 = load volatile i32, ptr @InterruptPending, align 4
  %.not = icmp eq i32 %22, 0
  br i1 %.not, label %.backedge, label %23, !prof !4

23:                                               ; preds = %21
  call void @ProcessInterrupts() #10
  br label %.backedge

.backedge:                                        ; preds = %23, %21
  br label %7

24:                                               ; preds = %15
  %25 = icmp eq i32 %.0, 0
  br i1 %25, label %26, label %31

26:                                               ; preds = %24
  call void @pfree(ptr noundef nonnull %.1) #10
  br i1 %3, label %46, label %27

27:                                               ; preds = %26
  %28 = call zeroext i1 @errstart_cold(i32 noundef 21, ptr noundef null) #11
  call void @llvm.assume(i1 %28)
  %29 = call i32 @errcode_for_file_access() #10
  %30 = call i32 (ptr, ...) @errmsg(ptr noundef nonnull @.str, ptr noundef nonnull %5, ptr noundef %1) #10
  call void @errfinish(ptr noundef nonnull @.str.1, i32 noundef 339, ptr noundef nonnull @__func__.BufFileOpenFileSet) #10
  unreachable

31:                                               ; preds = %24
  %32 = call ptr @palloc(i64 noundef 8264) #10
  store i32 %.0, ptr %32, align 8
  %33 = getelementptr inbounds nuw i8, ptr %32, i64 16
  store i8 0, ptr %33, align 8
  %34 = getelementptr inbounds nuw i8, ptr %32, i64 17
  store i8 0, ptr %34, align 1
  %35 = load ptr, ptr @CurrentResourceOwner, align 8
  %36 = getelementptr inbounds nuw i8, ptr %32, i64 40
  store ptr %35, ptr %36, align 8
  %37 = getelementptr inbounds nuw i8, ptr %32, i64 48
  store i32 0, ptr %37, align 8
  %38 = getelementptr inbounds nuw i8, ptr %32, i64 56
  call void @llvm.memset.p0.i64(ptr noundef nonnull align 8 dereferenceable(16) %38, i8 0, i64 16, i1 false)
  %39 = getelementptr inbounds nuw i8, ptr %32, i64 8
  store ptr %.1, ptr %39, align 8
  %40 = icmp eq i32 %2, 0
  %41 = getelementptr inbounds nuw i8, ptr %32, i64 18
  %42 = zext i1 %40 to i8
  store i8 %42, ptr %41, align 2
  %43 = getelementptr inbounds nuw i8, ptr %32, i64 24
  store ptr %0, ptr %43, align 8
  %44 = call ptr @pstrdup(ptr noundef %1) #10
  %45 = getelementptr inbounds nuw i8, ptr %32, i64 32
  store ptr %44, ptr %45, align 8
  br label %46

46:                                               ; preds = %26, %31
  %.032 = phi ptr [ %32, %31 ], [ null, %26 ]
  call void @llvm.lifetime.end.p0(i64 1024, ptr nonnull %5) #10
  ret ptr %.032
}